target datalayout = "e-m:e-p270:32:32-p271:32:32-p272:64:64-i64:64-i128:128-f80:128-n8:16:32:64-S128"
target triple = "x86_64-pc-linux-gnu"

%struct.RedisModuleCtx = type { ptr, ptr, ptr, ptr, ptr, i32, i32, i32, ptr, i32, ptr, ptr, ptr, ptr, i64, ptr }
%struct.RedisModuleBlockedClient = type { ptr, ptr, ptr, ptr, ptr, ptr, ptr, ptr, ptr, ptr, i32, i32, i32, i64, i64, i32 }

; Function Attrs: nounwind uwtable
define dso_local ptr @moduleGetReplyClient(ptr noundef %0) #0 {
  %2 = alloca ptr, align 8
  %3 = alloca ptr, align 8
  store ptr %0, ptr %3, align 8, !tbaa !13
  %4 = load ptr, ptr %3, align 8, !tbaa !13
  %5 = getelementptr inbounds nuw %struct.RedisModuleCtx, ptr %4, i32 0, i32 7
  %6 = load i32, ptr %5, align 8, !tbaa !98
  %7 = and i32 %6, 16
  %8 = icmp ne i32 %7, 0
  br i1 %8, label %9, label %21

9:                                                ; preds = %1
  %10 = load ptr, ptr %3, align 8, !tbaa !13
  %11 = getelementptr inbounds nuw %struct.RedisModuleCtx, ptr %10, i32 0, i32 3
  %12 = load ptr, ptr %11, align 8, !tbaa !321
  %13 = icmp ne ptr %12, null
  br i1 %13, label %14, label %20

14:                                               ; preds = %9
  %15 = load ptr, ptr %3, align 8, !tbaa !13
  %16 = getelementptr inbounds nuw %struct.RedisModuleCtx, ptr %15, i32 0, i32 3
  %17 = load ptr, ptr %16, align 8, !tbaa !321
  %18 = getelementptr inbounds nuw %struct.RedisModuleBlockedClient, ptr %17, i32 0, i32 9
  %19 = load ptr, ptr %18, align 8, !tbaa !322
  store ptr %19, ptr %2, align 8
  br label %25

20:                                               ; preds = %9
  store ptr null, ptr %2, align 8
  br label %25

21:                                               ; preds = %1
  %22 = load ptr, ptr %3, align 8, !tbaa !13
  %23 = getelementptr inbounds nuw %struct.RedisModuleCtx, ptr %22, i32 0, i32 2
  %24 = load ptr, ptr %23, align 8, !tbaa !106
  store ptr %24, ptr %2, align 8
  br label %25

25:                                               ; preds = %21, %20, %14
  %26 = load ptr, ptr %2, align 8
  ret ptr %26
}

; Function Attrs: nounwind uwtable
define dso_local i32 @RM_ReplyWithBigNumber(ptr noundef %0, ptr noundef %1, i64 noundef %2) #0 {
  %4 = alloca i32, align 4
  %5 = alloca ptr, align 8
  %6 = alloca ptr, align 8
  %7 = alloca i64, align 8
  %8 = alloca ptr, align 8
  %9 = alloca i32, align 4
  store ptr %0, ptr %5, align 8, !tbaa !13
  store ptr %1, ptr %6, align 8, !tbaa !11
  store i64 %2, ptr %7, align 8, !tbaa !5
  call void @llvm.lifetime.start.p0(i64 8, ptr %8) #15
  %10 = load ptr, ptr %5, align 8, !tbaa !13
  %11 = call ptr @moduleGetReplyClient(ptr noundef %10)
  store ptr %11, ptr %8, align 8, !tbaa !31
  %12 = load ptr, ptr %8, align 8, !tbaa !31
  %13 = icmp eq ptr %12, null
  br i1 %13, label %14, label %15

14:                                               ; preds = %3
  store i32 0, ptr %4, align 4
  store i32 1, ptr %9, align 4
  br label %19

15:                                               ; preds = %3
  %16 = load ptr, ptr %8, align 8, !tbaa !31
  %17 = load ptr, ptr %6, align 8, !tbaa !11
  %18 = load i64, ptr %7, align 8, !tbaa !5
  call void @addReplyBigNum(ptr noundef %16, ptr noundef %17, i64 noundef %18)
  store i32 0, ptr %4, align 4
  store i32 1, ptr %9, align 4
  br label %19

19:                                               ; preds = %15, %14
  call void @llvm.lifetime.end.p0(i64 8, ptr %8) #15
  %20 = load i32, ptr %4, align 4
  ret i32 %20
}