; Function Attrs: nounwind uwtable
define dso_local noundef i32 @RM_ReplyWithBigNumber(ptr noundef readonly captures(none) %0, ptr noundef %1, i64 noundef %2) #0 {
  %4 = getelementptr inbounds nuw i8, ptr %0, i64 48
  %5 = load i32, ptr %4, align 8, !tbaa !87
  %6 = and i32 %5, 16
  %.not.i = icmp eq i32 %6, 0
  br i1 %.not.i, label %12, label %7

7:                                                ; preds = %3
  %8 = getelementptr inbounds nuw i8, ptr %0, i64 24
  %9 = load ptr, ptr %8, align 8, !tbaa !272
  %.not6.i = icmp eq ptr %9, null
  br i1 %.not6.i, label %moduleGetReplyClient.exit.thread, label %10

10:                                               ; preds = %7
  %11 = getelementptr inbounds nuw i8, ptr %9, i64 72
  br label %moduleGetReplyClient.exit

12:                                               ; preds = %3
  %13 = getelementptr inbounds nuw i8, ptr %0, i64 16
  br label %moduleGetReplyClient.exit

moduleGetReplyClient.exit:                        ; preds = %10, %12
  %.0.i.in = phi ptr [ %11, %10 ], [ %13, %12 ]
  %.0.i = load ptr, ptr %.0.i.in, align 8, !tbaa !28
  %14 = icmp eq ptr %.0.i, null
  br i1 %14, label %moduleGetReplyClient.exit.thread, label %15

15:                                               ; preds = %moduleGetReplyClient.exit
  tail call void @addReplyBigNum(ptr noundef nonnull %.0.i, ptr noundef %1, i64 noundef %2) #35
  br label %moduleGetReplyClient.exit.thread

moduleGetReplyClient.exit.thread:                 ; preds = %7, %moduleGetReplyClient.exit, %15
  ret i32 0
}